target datalayout = "e-m:e-p270:32:32-p271:32:32-p272:64:64-i64:64-i128:128-f80:128-n8:16:32:64-S128"
target triple = "x86_64-pc-linux-gnu"

%struct.AVFilterContext = type { ptr, ptr, ptr, ptr, ptr, i32, ptr, ptr, i32, ptr, ptr, i32, i32, ptr, ptr, ptr, ptr, i32, ptr, i32, i32 }
%struct.AudioDelayContext = type { ptr, i32, ptr, ptr, i32, i32, i64, i64, i64, i64, i32, ptr, ptr, ptr }
%struct.ChanDelay = type { i64, i64, i64, i32, ptr }
%struct.AVFilterLink = type { ptr, ptr, ptr, ptr, i32, i32, i32, i32, %struct.AVRational, i32, i32, i32, %struct.AVChannelLayout, %struct.AVRational, ptr, i32, %struct.AVFilterFormatsConfig, %struct.AVFilterFormatsConfig }
%struct.AVChannelLayout = type { i32, i32, %union.anon.1, ptr }
%union.anon.1 = type { i64 }
%struct.AVRational = type { i32, i32 }
%struct.AVFilterFormatsConfig = type { ptr, ptr, ptr, ptr, ptr }

@.str.4 = private unnamed_addr constant [2 x i8] c"|\00", align 1
@.str.5 = private unnamed_addr constant [6 x i8] c"%ld%c\00", align 1
@.str.6 = private unnamed_addr constant [3 x i8] c"%f\00", align 1
@.str.7 = private unnamed_addr constant [27 x i8] c"Invalid syntax for delay.\0A\00", align 1
@.str.8 = private unnamed_addr constant [36 x i8] c"Delay must be non negative number.\0A\00", align 1
@.str.10 = private unnamed_addr constant [7 x i8] c"delays\00", align 1
@.str.15 = private unnamed_addr constant [5 x i8] c"all:\00", align 1

; Function Attrs: nounwind uwtable
define internal i32 @parse_delays(ptr noundef %0, ptr noundef %1, ptr noundef %2, ptr noundef %3, i32 noundef %4) #1 {
  %6 = alloca i32, align 4
  %7 = alloca ptr, align 8
  %8 = alloca ptr, align 8
  %9 = alloca ptr, align 8
  %10 = alloca ptr, align 8
  %11 = alloca i32, align 4
  %12 = alloca float, align 4
  %13 = alloca float, align 4
  %14 = alloca i32, align 4
  %15 = alloca ptr, align 8
  %16 = alloca i8, align 1
  %17 = alloca i32, align 4
  store ptr %0, ptr %7, align 8, !tbaa !33
  store ptr %1, ptr %8, align 8, !tbaa !84
  store ptr %2, ptr %9, align 8, !tbaa !85
  store ptr %3, ptr %10, align 8, !tbaa !4
  store i32 %4, ptr %11, align 4, !tbaa !29
  call void @llvm.lifetime.start.p0(i64 4, ptr %12) #9
  call void @llvm.lifetime.start.p0(i64 4, ptr %13) #9
  call void @llvm.lifetime.start.p0(i64 4, ptr %14) #9
  call void @llvm.lifetime.start.p0(i64 8, ptr %15) #9
  call void @llvm.lifetime.start.p0(i64 1, ptr %16) #9
  store i8 0, ptr %16, align 1, !tbaa !87
  %18 = load ptr, ptr %7, align 8, !tbaa !33
  %19 = load ptr, ptr %8, align 8, !tbaa !84
  %20 = call ptr @av_strtok(ptr noundef %18, ptr noundef @.str.4, ptr noundef %19)
  store ptr %20, ptr %15, align 8, !tbaa !33
  %21 = icmp ne ptr %20, null
  br i1 %21, label %23, label %22

22:                                               ; preds = %5
  store i32 1, ptr %6, align 4
  store i32 1, ptr %17, align 4
  br label %60

23:                                               ; preds = %5
  %24 = load ptr, ptr %15, align 8, !tbaa !33
  %25 = load ptr, ptr %9, align 8, !tbaa !85
  %26 = call i32 (ptr, ptr, ...) @av_sscanf(ptr noundef %24, ptr noundef @.str.5, ptr noundef %25, ptr noundef %16)
  store i32 %26, ptr %14, align 4, !tbaa !29
  %27 = load i32, ptr %14, align 4, !tbaa !29
  %28 = icmp ne i32 %27, 2
  br i1 %28, label %33, label %29

29:                                               ; preds = %23
  %30 = load i8, ptr %16, align 1, !tbaa !87
  %31 = sext i8 %30 to i32
  %32 = icmp ne i32 %31, 83
  br i1 %32, label %33, label %53

33:                                               ; preds = %29, %23
  %34 = load i8, ptr %16, align 1, !tbaa !87
  %35 = sext i8 %34 to i32
  %36 = icmp eq i32 %35, 115
  %37 = select nsz i1 %36, double 1.000000e+00, double 1.000000e+03
  %38 = fptrunc nsz double %37 to float
  store float %38, ptr %13, align 4, !tbaa !88
  %39 = load ptr, ptr %15, align 8, !tbaa !33
  %40 = call i32 (ptr, ptr, ...) @av_sscanf(ptr noundef %39, ptr noundef @.str.6, ptr noundef %12)
  %41 = icmp ne i32 %40, 1
  br i1 %41, label %42, label %44

42:                                               ; preds = %33
  %43 = load ptr, ptr %10, align 8, !tbaa !4
  call void (ptr, i32, ptr, ...) @av_log(ptr noundef %43, i32 noundef 16, ptr noundef @.str.7)
  store i32 -22, ptr %6, align 4
  store i32 1, ptr %17, align 4
  br label %60

44:                                               ; preds = %33
  %45 = load float, ptr %12, align 4, !tbaa !88
  %46 = load i32, ptr %11, align 4, !tbaa !29
  %47 = sitofp i32 %46 to float
  %48 = fmul nsz float %45, %47
  %49 = load float, ptr %13, align 4, !tbaa !88
  %50 = fdiv nsz float %48, %49
  %51 = fptosi float %50 to i64
  %52 = load ptr, ptr %9, align 8, !tbaa !85
  store i64 %51, ptr %52, align 8, !tbaa !37
  br label %53

53:                                               ; preds = %44, %29
  %54 = load ptr, ptr %9, align 8, !tbaa !85
  %55 = load i64, ptr %54, align 8, !tbaa !37
  %56 = icmp slt i64 %55, 0
  br i1 %56, label %57, label %59

57:                                               ; preds = %53
  %58 = load ptr, ptr %10, align 8, !tbaa !4
  call void (ptr, i32, ptr, ...) @av_log(ptr noundef %58, i32 noundef 16, ptr noundef @.str.8)
  store i32 -22, ptr %6, align 4
  store i32 1, ptr %17, align 4
  br label %60

59:                                               ; preds = %53
  store i32 0, ptr %6, align 4
  store i32 1, ptr %17, align 4
  br label %60

60:                                               ; preds = %59, %57, %42, %22
  call void @llvm.lifetime.end.p0(i64 1, ptr %16) #9
  call void @llvm.lifetime.end.p0(i64 8, ptr %15) #9
  call void @llvm.lifetime.end.p0(i64 4, ptr %14) #9
  call void @llvm.lifetime.end.p0(i64 4, ptr %13) #9
  call void @llvm.lifetime.end.p0(i64 4, ptr %12) #9
  %61 = load i32, ptr %6, align 4
  ret i32 %61
}

; Function Attrs: nounwind uwtable
define internal i32 @process_command(ptr noundef %0, ptr noundef %1, ptr noundef %2, ptr noundef %3, i32 noundef %4, i32 noundef %5) #1 {
  %7 = alloca i32, align 4
  %8 = alloca ptr, align 8
  %9 = alloca ptr, align 8
  %10 = alloca ptr, align 8
  %11 = alloca ptr, align 8
  %12 = alloca i32, align 4
  %13 = alloca i32, align 4
  %14 = alloca i32, align 4
  %15 = alloca ptr, align 8
  %16 = alloca ptr, align 8
  %17 = alloca i64, align 8
  %18 = alloca ptr, align 8
  %19 = alloca ptr, align 8
  %20 = alloca i64, align 8
  %21 = alloca i64, align 8
  %22 = alloca ptr, align 8
  %23 = alloca i32, align 4
  %24 = alloca i32, align 4
  %25 = alloca ptr, align 8
  store ptr %0, ptr %8, align 8, !tbaa !4
  store ptr %1, ptr %9, align 8, !tbaa !33
  store ptr %2, ptr %10, align 8, !tbaa !33
  store ptr %3, ptr %11, align 8, !tbaa !33
  store i32 %4, ptr %12, align 4, !tbaa !29
  store i32 %5, ptr %13, align 4, !tbaa !29
  call void @llvm.lifetime.start.p0(i64 4, ptr %14) #9
  store i32 -38, ptr %14, align 4, !tbaa !29
  call void @llvm.lifetime.start.p0(i64 8, ptr %15) #9
  %26 = load ptr, ptr %8, align 8, !tbaa !4
  %27 = getelementptr inbounds nuw %struct.AVFilterContext, ptr %26, i32 0, i32 4
  %28 = load ptr, ptr %27, align 8, !tbaa !34
  %29 = getelementptr inbounds ptr, ptr %28, i64 0
  %30 = load ptr, ptr %29, align 8, !tbaa !35
  store ptr %30, ptr %15, align 8, !tbaa !35
  call void @llvm.lifetime.start.p0(i64 8, ptr %16) #9
  %31 = load ptr, ptr %8, align 8, !tbaa !4
  %32 = getelementptr inbounds nuw %struct.AVFilterContext, ptr %31, i32 0, i32 9
  %33 = load ptr, ptr %32, align 8, !tbaa !9
  store ptr %33, ptr %16, align 8, !tbaa !22
  %34 = load ptr, ptr %9, align 8, !tbaa !33
  %35 = call i32 @strcmp(ptr noundef %34, ptr noundef @.str.10) #10
  %36 = icmp ne i32 %35, 0
  br i1 %36, label %149, label %37

37:                                               ; preds = %6
  call void @llvm.lifetime.start.p0(i64 8, ptr %17) #9
  call void @llvm.lifetime.start.p0(i64 8, ptr %18) #9
  call void @llvm.lifetime.start.p0(i64 8, ptr %19) #9
  store ptr null, ptr %19, align 8, !tbaa !33
  call void @llvm.lifetime.start.p0(i64 8, ptr %20) #9
  store i64 -1, ptr %20, align 8, !tbaa !37
  call void @llvm.lifetime.start.p0(i64 8, ptr %21) #9
  store i64 0, ptr %21, align 8, !tbaa !37
  call void @llvm.lifetime.start.p0(i64 8, ptr %22) #9
  %38 = load ptr, ptr %10, align 8, !tbaa !33
  %39 = call noalias ptr @av_strdup(ptr noundef %38)
  store ptr %39, ptr %22, align 8, !tbaa !33
  %40 = load ptr, ptr %22, align 8, !tbaa !33
  %41 = icmp eq ptr %40, null
  br i1 %41, label %42, label %43

42:                                               ; preds = %37
  store i32 -12, ptr %7, align 4
  store i32 1, ptr %23, align 4
  br label %146

43:                                               ; preds = %37
  store i32 0, ptr %14, align 4, !tbaa !29
  %44 = load ptr, ptr %22, align 8, !tbaa !33
  store ptr %44, ptr %18, align 8, !tbaa !33
  %45 = load ptr, ptr %10, align 8, !tbaa !33
  %46 = call i32 @strncmp(ptr noundef %45, ptr noundef @.str.15, i64 noundef 4) #10
  %47 = icmp ne i32 %46, 0
  br i1 %47, label %67, label %48

48:                                               ; preds = %43
  %49 = load ptr, ptr %22, align 8, !tbaa !33
  %50 = getelementptr inbounds i8, ptr %49, i64 4
  store ptr %50, ptr %18, align 8, !tbaa !33
  %51 = load ptr, ptr %18, align 8, !tbaa !33
  %52 = load ptr, ptr %8, align 8, !tbaa !4
  %53 = load ptr, ptr %15, align 8, !tbaa !35
  %54 = getelementptr inbounds nuw %struct.AVFilterLink, ptr %53, i32 0, i32 11
  %55 = load i32, ptr %54, align 8, !tbaa !38
  %56 = call i32 @parse_delays(ptr noundef %51, ptr noundef %19, ptr noundef %20, ptr noundef %52, i32 noundef %55)
  store i32 %56, ptr %14, align 4, !tbaa !29
  %57 = load i32, ptr %14, align 4, !tbaa !29
  %58 = icmp eq i32 %57, 1
  br i1 %58, label %59, label %60

59:                                               ; preds = %48
  store i32 -22, ptr %14, align 4, !tbaa !29
  br label %66

60:                                               ; preds = %48
  %61 = load i32, ptr %14, align 4, !tbaa !29
  %62 = icmp eq i32 %61, 0
  br i1 %62, label %63, label %65

63:                                               ; preds = %60
  %64 = load i64, ptr %20, align 8, !tbaa !37
  store i64 %64, ptr %17, align 8, !tbaa !37
  br label %65

65:                                               ; preds = %63, %60
  br label %66

66:                                               ; preds = %65, %59
  br label %67

67:                                               ; preds = %66, %43
  %68 = load i32, ptr %14, align 4, !tbaa !29
  %69 = icmp ne i32 %68, 0
  br i1 %69, label %145, label %70

70:                                               ; preds = %67
  call void @llvm.lifetime.start.p0(i64 4, ptr %24) #9
  store i32 0, ptr %24, align 4, !tbaa !29
  br label %71

71:                                               ; preds = %125, %70
  %72 = load i32, ptr %24, align 4, !tbaa !29
  %73 = load ptr, ptr %16, align 8, !tbaa !22
  %74 = getelementptr inbounds nuw %struct.AudioDelayContext, ptr %73, i32 0, i32 4
  %75 = load i32, ptr %74, align 8, !tbaa !30
  %76 = icmp slt i32 %72, %75
  br i1 %76, label %78, label %77

77:                                               ; preds = %71
  store i32 2, ptr %23, align 4
  br label %128

78:                                               ; preds = %71
  call void @llvm.lifetime.start.p0(i64 8, ptr %25) #9
  %79 = load ptr, ptr %16, align 8, !tbaa !22
  %80 = getelementptr inbounds nuw %struct.AudioDelayContext, ptr %79, i32 0, i32 3
  %81 = load ptr, ptr %80, align 8, !tbaa !24
  %82 = load i32, ptr %24, align 4, !tbaa !29
  %83 = sext i32 %82 to i64
  %84 = getelementptr inbounds %struct.ChanDelay, ptr %81, i64 %83
  store ptr %84, ptr %25, align 8, !tbaa !46
  %85 = load i64, ptr %20, align 8, !tbaa !37
  %86 = icmp slt i64 %85, 0
  br i1 %86, label %87, label %98

87:                                               ; preds = %78
  %88 = load ptr, ptr %18, align 8, !tbaa !33
  %89 = load ptr, ptr %8, align 8, !tbaa !4
  %90 = load ptr, ptr %15, align 8, !tbaa !35
  %91 = getelementptr inbounds nuw %struct.AVFilterLink, ptr %90, i32 0, i32 11
  %92 = load i32, ptr %91, align 8, !tbaa !38
  %93 = call i32 @parse_delays(ptr noundef %88, ptr noundef %19, ptr noundef %17, ptr noundef %89, i32 noundef %92)
  store i32 %93, ptr %14, align 4, !tbaa !29
  %94 = load i32, ptr %14, align 4, !tbaa !29
  %95 = icmp ne i32 %94, 0
  br i1 %95, label %96, label %97

96:                                               ; preds = %87
  store i32 0, ptr %14, align 4, !tbaa !29
  store i32 2, ptr %23, align 4
  br label %122

97:                                               ; preds = %87
  store ptr null, ptr %18, align 8, !tbaa !33
  br label %98

98:                                               ; preds = %97, %78
  %99 = load ptr, ptr %16, align 8, !tbaa !22
  %100 = getelementptr inbounds nuw %struct.AudioDelayContext, ptr %99, i32 0, i32 13
  %101 = load ptr, ptr %100, align 8, !tbaa !47
  %102 = load ptr, ptr %25, align 8, !tbaa !46
  %103 = load i64, ptr %17, align 8, !tbaa !37
  %104 = call i32 %101(ptr noundef %102, i64 noundef %103)
  store i32 %104, ptr %14, align 4, !tbaa !29
  %105 = load i32, ptr %14, align 4, !tbaa !29
  %106 = icmp ne i32 %105, 0
  br i1 %106, label %107, label %108

107:                                              ; preds = %98
  store i32 2, ptr %23, align 4
  br label %122

108:                                              ; preds = %98
  %109 = load i64, ptr %21, align 8, !tbaa !37
  %110 = load ptr, ptr %25, align 8, !tbaa !46
  %111 = getelementptr inbounds nuw %struct.ChanDelay, ptr %110, i32 0, i32 0
  %112 = load i64, ptr %111, align 8, !tbaa !48
  %113 = icmp sgt i64 %109, %112
  br i1 %113, label %114, label %116

114:                                              ; preds = %108
  %115 = load i64, ptr %21, align 8, !tbaa !37
  br label %120

116:                                              ; preds = %108
  %117 = load ptr, ptr %25, align 8, !tbaa !46
  %118 = getelementptr inbounds nuw %struct.ChanDelay, ptr %117, i32 0, i32 0
  %119 = load i64, ptr %118, align 8, !tbaa !48
  br label %120

120:                                              ; preds = %116, %114
  %121 = phi i64 [ %115, %114 ], [ %119, %116 ]
  store i64 %121, ptr %21, align 8, !tbaa !37
  store i32 0, ptr %23, align 4
  br label %122

122:                                              ; preds = %120, %107, %96
  call void @llvm.lifetime.end.p0(i64 8, ptr %25) #9
  %123 = load i32, ptr %23, align 4
  switch i32 %123, label %128 [
    i32 0, label %124
  ]

124:                                              ; preds = %122
  br label %125

125:                                              ; preds = %124
  %126 = load i32, ptr %24, align 4, !tbaa !29
  %127 = add nsw i32 %126, 1
  store i32 %127, ptr %24, align 4, !tbaa !29
  br label %71, !llvm.loop !50

128:                                              ; preds = %122, %77
  call void @llvm.lifetime.end.p0(i64 4, ptr %24) #9
  br label %129

129:                                              ; preds = %128
  %130 = load ptr, ptr %16, align 8, !tbaa !22
  %131 = getelementptr inbounds nuw %struct.AudioDelayContext, ptr %130, i32 0, i32 7
  %132 = load i64, ptr %131, align 8, !tbaa !51
  %133 = load i64, ptr %21, align 8, !tbaa !37
  %134 = icmp sgt i64 %132, %133
  br i1 %134, label %135, label %139

135:                                              ; preds = %129
  %136 = load ptr, ptr %16, align 8, !tbaa !22
  %137 = getelementptr inbounds nuw %struct.AudioDelayContext, ptr %136, i32 0, i32 7
  %138 = load i64, ptr %137, align 8, !tbaa !51
  br label %141

139:                                              ; preds = %129
  %140 = load i64, ptr %21, align 8, !tbaa !37
  br label %141

141:                                              ; preds = %139, %135
  %142 = phi i64 [ %138, %135 ], [ %140, %139 ]
  %143 = load ptr, ptr %16, align 8, !tbaa !22
  %144 = getelementptr inbounds nuw %struct.AudioDelayContext, ptr %143, i32 0, i32 7
  store i64 %142, ptr %144, align 8, !tbaa !51
  br label %145

145:                                              ; preds = %141, %67
  call void @av_freep(ptr noundef %22)
  store i32 0, ptr %23, align 4
  br label %146

146:                                              ; preds = %145, %42
  call void @llvm.lifetime.end.p0(i64 8, ptr %22) #9
  call void @llvm.lifetime.end.p0(i64 8, ptr %21) #9
  call void @llvm.lifetime.end.p0(i64 8, ptr %20) #9
  call void @llvm.lifetime.end.p0(i64 8, ptr %19) #9
  call void @llvm.lifetime.end.p0(i64 8, ptr %18) #9
  call void @llvm.lifetime.end.p0(i64 8, ptr %17) #9
  %147 = load i32, ptr %23, align 4
  switch i32 %147, label %151 [
    i32 0, label %148
  ]

148:                                              ; preds = %146
  br label %149

149:                                              ; preds = %148, %6
  %150 = load i32, ptr %14, align 4, !tbaa !29
  store i32 %150, ptr %7, align 4
  store i32 1, ptr %23, align 4
  br label %151

151:                                              ; preds = %149, %146
  call void @llvm.lifetime.end.p0(i64 8, ptr %16) #9
  call void @llvm.lifetime.end.p0(i64 8, ptr %15) #9
  call void @llvm.lifetime.end.p0(i64 4, ptr %14) #9
  %152 = load i32, ptr %7, align 4
  ret i32 %152
}