; Function Attrs: nounwind uwtable
define internal i32 @process_command(ptr noundef %0, ptr noundef readonly captures(none) %1, ptr noundef %2, ptr readnone captures(none) %3, i32 %4, i32 %5) #1 {
  %7 = alloca float, align 4
  %8 = alloca i8, align 1
  %9 = alloca float, align 4
  %10 = alloca i8, align 1
  %11 = alloca i64, align 8
  %12 = alloca ptr, align 8
  %13 = alloca i64, align 8
  %14 = alloca ptr, align 8
  %15 = getelementptr inbounds nuw i8, ptr %0, i64 32
  %16 = load ptr, ptr %15, align 8, !tbaa !28
  %17 = load ptr, ptr %16, align 8, !tbaa !29
  %18 = getelementptr inbounds nuw i8, ptr %0, i64 72
  %19 = load ptr, ptr %18, align 8, !tbaa !4
  %20 = tail call i32 @strcmp(ptr noundef nonnull dereferenceable(1) %1, ptr noundef nonnull dereferenceable(7) @.str.10) #11
  %.not = icmp eq i32 %20, 0
  br i1 %.not, label %21, label %94

21:                                               ; preds = %6
  call void @llvm.lifetime.start.p0(i64 8, ptr nonnull %11) #10
  call void @llvm.lifetime.start.p0(i64 8, ptr nonnull %12) #10
  store ptr null, ptr %12, align 8, !tbaa !31
  call void @llvm.lifetime.start.p0(i64 8, ptr nonnull %13) #10
  store i64 -1, ptr %13, align 8, !tbaa !32
  call void @llvm.lifetime.start.p0(i64 8, ptr nonnull %14) #10
  %22 = tail call noalias ptr @av_strdup(ptr noundef %2) #10
  store ptr %22, ptr %14, align 8, !tbaa !31
  %.not57 = icmp eq ptr %22, null
  br i1 %.not57, label %93, label %23

23:                                               ; preds = %21
  %24 = tail call i32 @strncmp(ptr noundef nonnull dereferenceable(1) %2, ptr noundef nonnull dereferenceable(5) @.str.15, i64 noundef 4) #11
  %.not53 = icmp eq i32 %24, 0
  br i1 %.not53, label %25, label %49

25:                                               ; preds = %23
  %26 = getelementptr inbounds nuw i8, ptr %22, i64 4
  %27 = getelementptr inbounds nuw i8, ptr %17, i64 64
  %28 = load i32, ptr %27, align 8, !tbaa !33
  call void @llvm.lifetime.start.p0(i64 4, ptr nonnull %9) #10
  call void @llvm.lifetime.start.p0(i64 1, ptr nonnull %10) #10
  store i8 0, ptr %10, align 1, !tbaa !42
  %29 = call ptr @av_strtok(ptr noundef nonnull %26, ptr noundef nonnull @.str.4, ptr noundef nonnull %12) #10
  %.not.i = icmp eq ptr %29, null
  br i1 %.not.i, label %parse_delays.exit.thread69, label %30

parse_delays.exit.thread69:                       ; preds = %25
  call void @llvm.lifetime.end.p0(i64 1, ptr nonnull %10) #10
  call void @llvm.lifetime.end.p0(i64 4, ptr nonnull %9) #10
  br label %.thread

30:                                               ; preds = %25
  %31 = call i32 (ptr, ptr, ...) @av_sscanf(ptr noundef nonnull %29, ptr noundef nonnull @.str.5, ptr noundef nonnull %13, ptr noundef nonnull %10) #10
  %32 = icmp ne i32 %31, 2
  %33 = load i8, ptr %10, align 1
  %34 = icmp ne i8 %33, 83
  %or.cond.i = select i1 %32, i1 true, i1 %34
  br i1 %or.cond.i, label %35, label %thread-pre-split.i

35:                                               ; preds = %30
  %36 = call i32 (ptr, ptr, ...) @av_sscanf(ptr noundef nonnull %29, ptr noundef nonnull @.str.6, ptr noundef nonnull %9) #10
  %.not15.i = icmp eq i32 %36, 1
  br i1 %.not15.i, label %37, label %.fold.split

37:                                               ; preds = %35
  %38 = icmp eq i8 %33, 115
  %39 = select i1 %38, float 1.000000e+00, float 1.000000e+03
  %40 = load float, ptr %9, align 4, !tbaa !43
  %41 = sitofp i32 %28 to float
  %42 = fmul nsz float %40, %41
  %43 = fdiv nsz float %42, %39
  %44 = fptosi float %43 to i64
  store i64 %44, ptr %13, align 8, !tbaa !32
  br label %45

thread-pre-split.i:                               ; preds = %30
  %.pr.i = load i64, ptr %13, align 8, !tbaa !32
  br label %45

45:                                               ; preds = %thread-pre-split.i, %37
  %46 = phi i64 [ %.pr.i, %thread-pre-split.i ], [ %44, %37 ]
  %47 = icmp slt i64 %46, 0
  br i1 %47, label %.fold.split, label %48

48:                                               ; preds = %45
  call void @llvm.lifetime.end.p0(i64 1, ptr nonnull %10) #10
  call void @llvm.lifetime.end.p0(i64 4, ptr nonnull %9) #10
  store i64 %46, ptr %11, align 8, !tbaa !32
  br label %49

.fold.split:                                      ; preds = %35, %45
  %.str.8.sink.i = phi ptr [ @.str.7, %35 ], [ @.str.8, %45 ]
  call void (ptr, i32, ptr, ...) @av_log(ptr noundef nonnull %0, i32 noundef 16, ptr noundef nonnull %.str.8.sink.i) #10
  call void @llvm.lifetime.end.p0(i64 1, ptr nonnull %10) #10
  call void @llvm.lifetime.end.p0(i64 4, ptr nonnull %9) #10
  br label %.thread

49:                                               ; preds = %48, %23
  %.041 = phi ptr [ %22, %23 ], [ %26, %48 ]
  %50 = getelementptr inbounds nuw i8, ptr %19, i64 32
  %51 = load i32, ptr %50, align 8, !tbaa !25
  %52 = icmp sgt i32 %51, 0
  br i1 %52, label %.lr.ph, label %.thread77

.lr.ph:                                           ; preds = %49
  %53 = getelementptr inbounds nuw i8, ptr %19, i64 24
  %54 = getelementptr inbounds nuw i8, ptr %17, i64 64
  %55 = getelementptr inbounds nuw i8, ptr %19, i64 96
  br label %56

56:                                               ; preds = %.lr.ph, %86
  %indvars.iv = phi i64 [ 0, %.lr.ph ], [ %indvars.iv.next, %86 ]
  %.03987 = phi i64 [ 0, %.lr.ph ], [ %.039., %86 ]
  %.14286 = phi ptr [ %.041, %.lr.ph ], [ %.243, %86 ]
  %57 = load ptr, ptr %53, align 8, !tbaa !20
  %58 = getelementptr inbounds nuw %struct.ChanDelay, ptr %57, i64 %indvars.iv
  %59 = load i64, ptr %13, align 8, !tbaa !32
  %60 = icmp slt i64 %59, 0
  br i1 %60, label %61, label %._crit_edge

._crit_edge:                                      ; preds = %56
  %.pre = load i64, ptr %11, align 8, !tbaa !32
  br label %82

61:                                               ; preds = %56
  %62 = load i32, ptr %54, align 8, !tbaa !33
  call void @llvm.lifetime.start.p0(i64 4, ptr nonnull %7) #10
  call void @llvm.lifetime.start.p0(i64 1, ptr nonnull %8) #10
  store i8 0, ptr %8, align 1, !tbaa !42
  %63 = call ptr @av_strtok(ptr noundef %.14286, ptr noundef nonnull @.str.4, ptr noundef nonnull %12) #10
  %.not.i58 = icmp eq ptr %63, null
  br i1 %.not.i58, label %parse_delays.exit66.thread, label %64

64:                                               ; preds = %61
  %65 = call i32 (ptr, ptr, ...) @av_sscanf(ptr noundef nonnull %63, ptr noundef nonnull @.str.5, ptr noundef nonnull %11, ptr noundef nonnull %8) #10
  %66 = icmp ne i32 %65, 2
  %67 = load i8, ptr %8, align 1
  %68 = icmp ne i8 %67, 83
  %or.cond.i59 = select i1 %66, i1 true, i1 %68
  br i1 %or.cond.i59, label %69, label %thread-pre-split.i60

69:                                               ; preds = %64
  %70 = call i32 (ptr, ptr, ...) @av_sscanf(ptr noundef nonnull %63, ptr noundef nonnull @.str.6, ptr noundef nonnull %7) #10
  %.not15.i65 = icmp eq i32 %70, 1
  br i1 %.not15.i65, label %71, label %.sink.split.i63

71:                                               ; preds = %69
  %72 = icmp eq i8 %67, 115
  %73 = select i1 %72, float 1.000000e+00, float 1.000000e+03
  %74 = load float, ptr %7, align 4, !tbaa !43
  %75 = sitofp i32 %62 to float
  %76 = fmul nsz float %74, %75
  %77 = fdiv nsz float %76, %73
  %78 = fptosi float %77 to i64
  store i64 %78, ptr %11, align 8, !tbaa !32
  br label %79

thread-pre-split.i60:                             ; preds = %64
  %.pr.i61 = load i64, ptr %11, align 8, !tbaa !32
  br label %79

79:                                               ; preds = %thread-pre-split.i60, %71
  %80 = phi i64 [ %.pr.i61, %thread-pre-split.i60 ], [ %78, %71 ]
  %81 = icmp slt i64 %80, 0
  br i1 %81, label %.sink.split.i63, label %parse_delays.exit66

.sink.split.i63:                                  ; preds = %79, %69
  %.str.8.sink.i64 = phi ptr [ @.str.7, %69 ], [ @.str.8, %79 ]
  call void (ptr, i32, ptr, ...) @av_log(ptr noundef %0, i32 noundef 16, ptr noundef nonnull %.str.8.sink.i64) #10
  br label %parse_delays.exit66.thread

parse_delays.exit66.thread:                       ; preds = %61, %.sink.split.i63
  call void @llvm.lifetime.end.p0(i64 1, ptr nonnull %8) #10
  call void @llvm.lifetime.end.p0(i64 4, ptr nonnull %7) #10
  br label %.thread77

parse_delays.exit66:                              ; preds = %79
  call void @llvm.lifetime.end.p0(i64 1, ptr nonnull %8) #10
  call void @llvm.lifetime.end.p0(i64 4, ptr nonnull %7) #10
  br label %82

82:                                               ; preds = %._crit_edge, %parse_delays.exit66
  %83 = phi i64 [ %.pre, %._crit_edge ], [ %80, %parse_delays.exit66 ]
  %.243 = phi ptr [ %.14286, %._crit_edge ], [ null, %parse_delays.exit66 ]
  %84 = load ptr, ptr %55, align 8, !tbaa !45
  %85 = call i32 %84(ptr noundef %58, i64 noundef %83) #10
  %.not56 = icmp eq i32 %85, 0
  br i1 %.not56, label %86, label %.thread77

86:                                               ; preds = %82
  %87 = load i64, ptr %58, align 8, !tbaa !46
  %.039. = call i64 @llvm.smax.i64(i64 %.03987, i64 %87)
  %indvars.iv.next = add nuw nsw i64 %indvars.iv, 1
  %88 = load i32, ptr %50, align 8, !tbaa !25
  %89 = sext i32 %88 to i64
  %90 = icmp slt i64 %indvars.iv.next, %89
  br i1 %90, label %56, label %.thread77, !llvm.loop !48

.thread77:                                        ; preds = %86, %82, %49, %parse_delays.exit66.thread
  %.03984 = phi i64 [ %.03987, %parse_delays.exit66.thread ], [ 0, %49 ], [ %.039., %86 ], [ %.03987, %82 ]
  %.5 = phi i32 [ 0, %parse_delays.exit66.thread ], [ 0, %49 ], [ 0, %86 ], [ %85, %82 ]
  %91 = getelementptr inbounds nuw i8, ptr %19, i64 48
  %92 = load i64, ptr %91, align 8, !tbaa !49
  %..140 = call i64 @llvm.smax.i64(i64 %92, i64 %.03984)
  store i64 %..140, ptr %91, align 8, !tbaa !49
  br label %.thread

.thread:                                          ; preds = %parse_delays.exit.thread69, %.fold.split, %.thread77
  %.347 = phi i32 [ %.5, %.thread77 ], [ -22, %.fold.split ], [ -22, %parse_delays.exit.thread69 ]
  call void @av_freep(ptr noundef nonnull %14) #10
  br label %93

93:                                               ; preds = %21, %.thread
  %spec.select = phi i32 [ %.347, %.thread ], [ -12, %21 ]
  call void @llvm.lifetime.end.p0(i64 8, ptr nonnull %14) #10
  call void @llvm.lifetime.end.p0(i64 8, ptr nonnull %13) #10
  call void @llvm.lifetime.end.p0(i64 8, ptr nonnull %12) #10
  call void @llvm.lifetime.end.p0(i64 8, ptr nonnull %11) #10
  br label %94

94:                                               ; preds = %93, %6
  %.1 = phi i32 [ -38, %6 ], [ %spec.select, %93 ]
  ret i32 %.1
}